target datalayout = "e-m:e-p270:32:32-p271:32:32-p272:64:64-i64:64-i128:128-f80:128-n8:16:32:64-S128"
target triple = "x86_64-pc-linux-gnu"

; Function Attrs: nounwind uwtable
define internal void @chrRangeFromJpeg_c(ptr noundef %0, ptr noundef %1, i32 noundef %2, i32 noundef %3, i64 noundef %4) #0 {
  %6 = alloca ptr, align 8
  %7 = alloca ptr, align 8
  %8 = alloca i32, align 4
  %9 = alloca i32, align 4
  %10 = alloca i64, align 8
  %11 = alloca i16, align 2
  %12 = alloca i32, align 4
  %13 = alloca i32, align 4
  store ptr %0, ptr %6, align 8, !tbaa !104
  store ptr %1, ptr %7, align 8, !tbaa !104
  store i32 %2, ptr %8, align 4, !tbaa !14
  store i32 %3, ptr %9, align 4, !tbaa !14
  store i64 %4, ptr %10, align 8, !tbaa !105
  call void @llvm.lifetime.start.p0(i64 2, ptr %11) #11
  %14 = load i32, ptr %9, align 4, !tbaa !14
  %15 = trunc i32 %14 to i16
  store i16 %15, ptr %11, align 2, !tbaa !102
  call void @llvm.lifetime.start.p0(i64 4, ptr %12) #11
  %16 = load i64, ptr %10, align 8, !tbaa !105
  %17 = trunc i64 %16 to i32
  store i32 %17, ptr %12, align 4, !tbaa !14
  call void @llvm.lifetime.start.p0(i64 4, ptr %13) #11
  store i32 0, ptr %13, align 4, !tbaa !14
  br label %18

18:                                               ; preds = %57, %5
  %19 = load i32, ptr %13, align 4, !tbaa !14
  %20 = load i32, ptr %8, align 4, !tbaa !14
  %21 = icmp slt i32 %19, %20
  br i1 %21, label %22, label %60

22:                                               ; preds = %18
  %23 = load ptr, ptr %6, align 8, !tbaa !104
  %24 = load i32, ptr %13, align 4, !tbaa !14
  %25 = sext i32 %24 to i64
  %26 = getelementptr inbounds i16, ptr %23, i64 %25
  %27 = load i16, ptr %26, align 2, !tbaa !102
  %28 = sext i16 %27 to i32
  %29 = load i16, ptr %11, align 2, !tbaa !102
  %30 = zext i16 %29 to i32
  %31 = mul nsw i32 %28, %30
  %32 = load i32, ptr %12, align 4, !tbaa !14
  %33 = add nsw i32 %31, %32
  %34 = ashr i32 %33, 14
  %35 = trunc i32 %34 to i16
  %36 = load ptr, ptr %6, align 8, !tbaa !104
  %37 = load i32, ptr %13, align 4, !tbaa !14
  %38 = sext i32 %37 to i64
  %39 = getelementptr inbounds i16, ptr %36, i64 %38
  store i16 %35, ptr %39, align 2, !tbaa !102
  %40 = load ptr, ptr %7, align 8, !tbaa !104
  %41 = load i32, ptr %13, align 4, !tbaa !14
  %42 = sext i32 %41 to i64
  %43 = getelementptr inbounds i16, ptr %40, i64 %42
  %44 = load i16, ptr %43, align 2, !tbaa !102
  %45 = sext i16 %44 to i32
  %46 = load i16, ptr %11, align 2, !tbaa !102
  %47 = zext i16 %46 to i32
  %48 = mul nsw i32 %45, %47
  %49 = load i32, ptr %12, align 4, !tbaa !14
  %50 = add nsw i32 %48, %49
  %51 = ashr i32 %50, 14
  %52 = trunc i32 %51 to i16
  %53 = load ptr, ptr %7, align 8, !tbaa !104
  %54 = load i32, ptr %13, align 4, !tbaa !14
  %55 = sext i32 %54 to i64
  %56 = getelementptr inbounds i16, ptr %53, i64 %55
  store i16 %52, ptr %56, align 2, !tbaa !102
  br label %57

57:                                               ; preds = %22
  %58 = load i32, ptr %13, align 4, !tbaa !14
  %59 = add nsw i32 %58, 1
  store i32 %59, ptr %13, align 4, !tbaa !14
  br label %18, !llvm.loop !107

60:                                               ; preds = %18
  call void @llvm.lifetime.end.p0(i64 4, ptr %13) #11
  call void @llvm.lifetime.end.p0(i64 4, ptr %12) #11
  call void @llvm.lifetime.end.p0(i64 2, ptr %11) #11
  ret void
}