; Function Attrs: nofree norecurse nosync nounwind memory(argmem: readwrite) uwtable
define internal void @chrRangeFromJpeg_c(ptr noundef captures(none) %0, ptr noundef captures(none) %1, i32 noundef %2, i32 noundef %3, i64 noundef %4) #6 {
  %6 = trunc i64 %4 to i32
  %7 = icmp sgt i32 %2, 0
  br i1 %7, label %.lr.ph, label %._crit_edge

.lr.ph:                                           ; preds = %5
  %8 = and i32 %3, 65535
  %wide.trip.count = zext nneg i32 %2 to i64
  br label %9

9:                                                ; preds = %.lr.ph, %9
  %indvars.iv = phi i64 [ 0, %.lr.ph ], [ %indvars.iv.next, %9 ]
  %10 = getelementptr inbounds nuw i16, ptr %0, i64 %indvars.iv
  %11 = load i16, ptr %10, align 2, !tbaa !94
  %12 = sext i16 %11 to i32
  %13 = mul nsw i32 %8, %12
  %14 = add nsw i32 %13, %6
  %15 = lshr i32 %14, 14
  %16 = trunc i32 %15 to i16
  store i16 %16, ptr %10, align 2, !tbaa !94
  %17 = getelementptr inbounds nuw i16, ptr %1, i64 %indvars.iv
  %18 = load i16, ptr %17, align 2, !tbaa !94
  %19 = sext i16 %18 to i32
  %20 = mul nsw i32 %8, %19
  %21 = add nsw i32 %20, %6
  %22 = lshr i32 %21, 14
  %23 = trunc i32 %22 to i16
  store i16 %23, ptr %17, align 2, !tbaa !94
  %indvars.iv.next = add nuw nsw i64 %indvars.iv, 1
  %exitcond.not = icmp eq i64 %indvars.iv.next, %wide.trip.count
  br i1 %exitcond.not, label %._crit_edge, label %9, !llvm.loop !97

._crit_edge:                                      ; preds = %9, %5
  ret void
}